target datalayout = "e-m:e-p270:32:32-p271:32:32-p272:64:64-i64:64-i128:128-f80:128-n8:16:32:64-S128"
target triple = "x86_64-pc-linux-gnu"

%struct._zend_llist = type { ptr, ptr, i64, i64, ptr, i8, ptr }
%struct._zend_stack = type { i32, i32, i32, ptr }
%struct._zend_array = type { %struct._zend_refcounted_h, %union.anon.4, i32, %union.anon.6, i32, i32, i32, i32, i64, ptr }
%struct._zend_refcounted_h = type { i32, %union.anon.3 }
%union.anon.3 = type { i32 }
%union.anon.4 = type { i32 }
%union.anon.6 = type { ptr }
%struct._zend_compiler_globals = type { %struct._zend_stack, ptr, ptr, i32, ptr, ptr, ptr, ptr, i8, i8, i8, i8, i8, %struct._zend_llist, ptr, i8, i8, i8, i8, ptr, i32, i32, %struct._zend_oparray_context, %struct._zend_file_context, ptr, %struct._zend_array, ptr, i64, i8, i8, i8, ptr, ptr, %struct._zend_stack, ptr, i32, ptr, ptr, i64, i64, ptr, ptr, ptr, ptr, i32, ptr, i32, %struct._zend_stack }
%struct._zend_oparray_context = type { ptr, ptr, i32, i32, i32, i32, i32, i32, i32, ptr, ptr, ptr, i32, i8 }
%struct._zend_file_context = type { %struct._zend_declarables, ptr, i8, i8, ptr, ptr, ptr, %struct._zend_array }
%struct._zend_declarables = type { i64 }
%struct.anon.7 = type { i8, [3 x i8], i32, ptr, ptr, ptr, i32, i32, ptr, ptr, ptr, ptr, i32, ptr }

@zend_observers_fcall_list = internal global %struct._zend_llist zeroinitializer, align 8
@zend_observer_fcall_op_array_extension = dso_local global i32 0, align 4
@zend_observer_fcall_internal_function_extension = dso_local global i32 0, align 4
@compiler_globals = external global %struct._zend_compiler_globals, align 8

; Function Attrs: nounwind uwtable
define dso_local void @zend_observer_add_end_handler(ptr noundef %0, ptr noundef %1) #0 {
  %3 = alloca ptr, align 8
  %4 = alloca ptr, align 8
  %5 = alloca i64, align 8
  %6 = alloca ptr, align 8
  %7 = alloca ptr, align 8
  store ptr %0, ptr %3, align 8, !tbaa !75
  store ptr %1, ptr %4, align 8, !tbaa !4
  call void @llvm.lifetime.start.p0(i64 8, ptr %5) #8
  %8 = load i64, ptr getelementptr inbounds nuw (%struct._zend_llist, ptr @zend_observers_fcall_list, i32 0, i32 2), align 8, !tbaa !10
  store i64 %8, ptr %5, align 8, !tbaa !36
  call void @llvm.lifetime.start.p0(i64 8, ptr %6) #8
  %9 = load ptr, ptr %3, align 8, !tbaa !75
  %10 = getelementptr inbounds nuw %struct.anon.7, ptr %9, i32 0, i32 10
  %11 = load ptr, ptr %10, align 8, !tbaa !35
  %12 = ptrtoint ptr %11 to i64
  %13 = and i64 %12, 1
  %14 = icmp ne i64 %13, 0
  br i1 %14, label %15, label %23

15:                                               ; preds = %2
  %16 = load ptr, ptr getelementptr inbounds nuw (%struct._zend_compiler_globals, ptr @compiler_globals, i32 0, i32 37), align 8, !tbaa !76
  %17 = load ptr, ptr %3, align 8, !tbaa !75
  %18 = getelementptr inbounds nuw %struct.anon.7, ptr %17, i32 0, i32 10
  %19 = load ptr, ptr %18, align 8, !tbaa !35
  %20 = ptrtoint ptr %19 to i64
  %21 = getelementptr inbounds i8, ptr %16, i64 %20
  %22 = load ptr, ptr %21, align 8, !tbaa !4
  br label %27

23:                                               ; preds = %2
  %24 = load ptr, ptr %3, align 8, !tbaa !75
  %25 = getelementptr inbounds nuw %struct.anon.7, ptr %24, i32 0, i32 10
  %26 = load ptr, ptr %25, align 8, !tbaa !35
  br label %27

27:                                               ; preds = %23, %15
  %28 = phi ptr [ %22, %15 ], [ %26, %23 ]
  %29 = load ptr, ptr %3, align 8, !tbaa !75
  %30 = load i8, ptr %29, align 8, !tbaa !35
  %31 = zext i8 %30 to i32
  %32 = icmp ne i32 %31, 1
  br i1 %32, label %33, label %35

33:                                               ; preds = %27
  %34 = load i32, ptr @zend_observer_fcall_op_array_extension, align 4, !tbaa !8
  br label %37

35:                                               ; preds = %27
  %36 = load i32, ptr @zend_observer_fcall_internal_function_extension, align 4, !tbaa !8
  br label %37

37:                                               ; preds = %35, %33
  %38 = phi i32 [ %34, %33 ], [ %36, %35 ]
  %39 = sext i32 %38 to i64
  %40 = getelementptr inbounds ptr, ptr %28, i64 %39
  store ptr %40, ptr %6, align 8, !tbaa !4
  call void @llvm.lifetime.start.p0(i64 8, ptr %7) #8
  %41 = load ptr, ptr %6, align 8, !tbaa !4
  %42 = load i64, ptr %5, align 8, !tbaa !36
  %43 = getelementptr inbounds nuw ptr, ptr %41, i64 %42
  store ptr %43, ptr %7, align 8, !tbaa !4
  %44 = load ptr, ptr %7, align 8, !tbaa !4
  %45 = load ptr, ptr %44, align 8, !tbaa !4
  %46 = icmp ne ptr %45, inttoptr (i64 2 to ptr)
  br i1 %46, label %47, label %60

47:                                               ; preds = %37
  %48 = load ptr, ptr %7, align 8, !tbaa !4
  %49 = load i64, ptr %5, align 8, !tbaa !36
  %50 = sub i64 %49, 1
  %51 = getelementptr inbounds nuw ptr, ptr %48, i64 %50
  %52 = load ptr, ptr %51, align 8, !tbaa !4
  %53 = icmp eq ptr %52, null
  call void @llvm.assume(i1 %53)
  %54 = load ptr, ptr %7, align 8, !tbaa !4
  %55 = getelementptr inbounds ptr, ptr %54, i64 1
  %56 = load ptr, ptr %7, align 8, !tbaa !4
  %57 = load i64, ptr %5, align 8, !tbaa !36
  %58 = sub i64 %57, 1
  %59 = mul i64 8, %58
  call void @llvm.memmove.p0.p0.i64(ptr align 8 %55, ptr align 8 %56, i64 %59, i1 false)
  br label %67

60:                                               ; preds = %37
  %61 = load ptr, ptr %6, align 8, !tbaa !4
  %62 = load ptr, ptr %61, align 8, !tbaa !4
  %63 = icmp eq ptr %62, inttoptr (i64 3 to ptr)
  br i1 %63, label %64, label %66

64:                                               ; preds = %60
  %65 = load ptr, ptr %6, align 8, !tbaa !4
  store ptr inttoptr (i64 2 to ptr), ptr %65, align 8, !tbaa !4
  br label %66

66:                                               ; preds = %64, %60
  br label %67

67:                                               ; preds = %66, %47
  %68 = load ptr, ptr %4, align 8, !tbaa !4
  %69 = load ptr, ptr %7, align 8, !tbaa !4
  store ptr %68, ptr %69, align 8, !tbaa !4
  call void @llvm.lifetime.end.p0(i64 8, ptr %7) #8
  call void @llvm.lifetime.end.p0(i64 8, ptr %6) #8
  call void @llvm.lifetime.end.p0(i64 8, ptr %5) #8
  ret void
}