; Function Attrs: mustprogress nofree norecurse nosync nounwind willreturn memory(readwrite, inaccessiblemem: write) uwtable
define dso_local void @zend_observer_add_end_handler(ptr noundef readonly captures(none) %0, ptr noundef %1) local_unnamed_addr #6 {
  %3 = load i64, ptr getelementptr inbounds nuw (i8, ptr @zend_observers_fcall_list, i64 16), align 8, !tbaa !10
  %4 = getelementptr inbounds nuw i8, ptr %0, i64 56
  %5 = load ptr, ptr %4, align 8, !tbaa !34
  %6 = ptrtoint ptr %5 to i64
  %7 = and i64 %6, 1
  %.not = icmp eq i64 %7, 0
  br i1 %.not, label %12, label %8

8:                                                ; preds = %2
  %9 = load ptr, ptr getelementptr inbounds nuw (i8, ptr @compiler_globals, i64 512), align 8, !tbaa !68
  %10 = getelementptr inbounds i8, ptr %9, i64 %6
  %11 = load ptr, ptr %10, align 8, !tbaa !4
  br label %12

12:                                               ; preds = %2, %8
  %13 = phi ptr [ %11, %8 ], [ %5, %2 ]
  %14 = load i8, ptr %0, align 8, !tbaa !34
  %.not15 = icmp eq i8 %14, 1
  %15 = load i32, ptr @zend_observer_fcall_op_array_extension, align 4
  %16 = load i32, ptr @zend_observer_fcall_internal_function_extension, align 4
  %17 = select i1 %.not15, i32 %16, i32 %15
  %18 = sext i32 %17 to i64
  %19 = getelementptr inbounds ptr, ptr %13, i64 %18
  %20 = getelementptr inbounds nuw ptr, ptr %19, i64 %3
  %21 = load ptr, ptr %20, align 8, !tbaa !4
  %.not16 = icmp eq ptr %21, inttoptr (i64 2 to ptr)
  br i1 %.not16, label %29, label %22

22:                                               ; preds = %12
  %23 = add i64 %3, -1
  %24 = getelementptr inbounds nuw ptr, ptr %20, i64 %23
  %25 = load ptr, ptr %24, align 8, !tbaa !4
  %26 = icmp eq ptr %25, null
  tail call void @llvm.assume(i1 %26)
  %27 = getelementptr inbounds nuw i8, ptr %20, i64 8
  %28 = shl i64 %23, 3
  tail call void @llvm.memmove.p0.p0.i64(ptr nonnull align 8 %27, ptr nonnull align 8 %20, i64 %28, i1 false)
  br label %33

29:                                               ; preds = %12
  %30 = load ptr, ptr %19, align 8, !tbaa !4
  %31 = icmp eq ptr %30, inttoptr (i64 3 to ptr)
  br i1 %31, label %32, label %33

32:                                               ; preds = %29
  store ptr inttoptr (i64 2 to ptr), ptr %19, align 8, !tbaa !4
  br label %33

33:                                               ; preds = %29, %32, %22
  store ptr %1, ptr %20, align 8, !tbaa !4
  ret void
}